(i__main__
Node
p0
(dp1
S'right'
p2
(i__main__
Node
p3
(dp4
g2
NsS'data'
p5
I3
sS'left'
p6
Nsbsg5
I1
sg6
(i__main__
Node
p7
(dp8
g2
(i__main__
Node
p9
(dp10
g2
Nsg5
I5
sg6
Nsbsg5
I2
sg6
(i__main__
Node
p11
(dp12
g2
Nsg5
I4
sg6
Nsbsbsb.